; Function Attrs: nofree norecurse nosync nounwind memory(read, inaccessiblemem: none) uwtable
define i32 @Gia_ManLutNum(ptr noundef readonly captures(none) %0) local_unnamed_addr #3 {
  %2 = getelementptr i8, ptr %0, i64 24
  %.val = load i32, ptr %2, align 8, !tbaa !27
  %3 = icmp sgt i32 %.val, 1
  br i1 %3, label %.lr.ph, label %._crit_edge

.lr.ph:                                           ; preds = %1
  %4 = getelementptr i8, ptr %0, i64 264
  %.val7 = load ptr, ptr %4, align 8, !tbaa !46
  %5 = getelementptr i8, ptr %.val7, i64 8
  %.val7.val = load ptr, ptr %5, align 8, !tbaa !47
  %wide.trip.count = zext nneg i32 %.val to i64
  br label %6

6:                                                ; preds = %.lr.ph, %6
  %indvars.iv = phi i64 [ 1, %.lr.ph ], [ %indvars.iv.next, %6 ]
  %.010 = phi i32 [ 0, %.lr.ph ], [ %spec.select, %6 ]
  %7 = getelementptr inbounds nuw i32, ptr %.val7.val, i64 %indvars.iv
  %8 = load i32, ptr %7, align 4, !tbaa !48
  %.not8 = icmp ne i32 %8, 0
  %9 = zext i1 %.not8 to i32
  %spec.select = add nuw nsw i32 %.010, %9
  %indvars.iv.next = add nuw nsw i64 %indvars.iv, 1
  %exitcond.not = icmp eq i64 %indvars.iv.next, %wide.trip.count
  br i1 %exitcond.not, label %._crit_edge, label %6, !llvm.loop !52

._crit_edge:                                      ; preds = %6, %1
  %.0.lcssa = phi i32 [ 0, %1 ], [ %spec.select, %6 ]
  ret i32 %.0.lcssa
}